target datalayout = "e-m:e-p270:32:32-p271:32:32-p272:64:64-i64:64-i128:128-f80:128-n8:16:32:64-S128"
target triple = "x86_64-pc-linux-gnu"

%struct._proto_node = type { ptr, ptr, ptr, ptr, ptr, ptr, ptr }
%struct.field_info = type { ptr, i32, i32, i32, i32, i32, i32, ptr, ptr, ptr, i32, i32 }

@hf_gsm_a_rr_T1prim = internal global i32 0, align 4
@hf_gsm_a_rr_T3 = internal global i32 0, align 4
@hf_gsm_a_rr_T2 = internal global i32 0, align 4
@hf_gsm_a_rr_rfn = internal global i32 0, align 4

; Function Attrs: inlinehint nounwind null_pointer_is_valid sspstrong uwtable
define internal void @proto_item_set_generated(ptr noundef %0) #9 {
  %2 = alloca ptr, align 8
  store ptr %0, ptr %2, align 8
  %3 = load ptr, ptr %2, align 8
  %4 = icmp ne ptr %3, null
  br i1 %4, label %5, label %24

5:                                                ; preds = %1
  br label %6

6:                                                ; preds = %5
  %7 = load ptr, ptr %2, align 8
  %8 = getelementptr inbounds nuw %struct._proto_node, ptr %7, i32 0, i32 5
  %9 = load ptr, ptr %8, align 8
  %10 = icmp ne ptr %9, null
  br i1 %10, label %11, label %22

11:                                               ; preds = %6
  %12 = load ptr, ptr %2, align 8
  %13 = getelementptr inbounds nuw %struct._proto_node, ptr %12, i32 0, i32 5
  %14 = load ptr, ptr %13, align 8
  %15 = getelementptr inbounds nuw %struct.field_info, ptr %14, i32 0, i32 6
  %16 = load i32, ptr %15, align 4
  %17 = or i32 %16, 2
  %18 = load ptr, ptr %2, align 8
  %19 = getelementptr inbounds nuw %struct._proto_node, ptr %18, i32 0, i32 5
  %20 = load ptr, ptr %19, align 8
  %21 = getelementptr inbounds nuw %struct.field_info, ptr %20, i32 0, i32 6
  store i32 %17, ptr %21, align 4
  br label %22

22:                                               ; preds = %11, %6
  br label %23

23:                                               ; preds = %22
  br label %24

24:                                               ; preds = %23, %1
  ret void
}

; Function Attrs: null_pointer_is_valid sspstrong uwtable
define hidden zeroext i16 @parse_reduced_frame_number(ptr noundef %0, i32 noundef %1) #1 {
  %3 = alloca ptr, align 8
  %4 = alloca i32, align 4
  %5 = alloca i16, align 2
  %6 = alloca i16, align 2
  %7 = alloca i16, align 2
  %8 = alloca i16, align 2
  %9 = alloca i16, align 2
  %10 = alloca i16, align 2
  store ptr %0, ptr %3, align 8
  store i32 %1, ptr %4, align 4
  call void @llvm.lifetime.start.p0(i64 2, ptr %5) #11
  call void @llvm.lifetime.start.p0(i64 2, ptr %6) #11
  call void @llvm.lifetime.start.p0(i64 2, ptr %7) #11
  call void @llvm.lifetime.start.p0(i64 2, ptr %8) #11
  call void @llvm.lifetime.start.p0(i64 2, ptr %9) #11
  call void @llvm.lifetime.start.p0(i64 2, ptr %10) #11
  %11 = load ptr, ptr %3, align 8
  %12 = load i32, ptr %4, align 4
  %13 = call zeroext i16 @tvb_get_ntohs(ptr noundef %11, i32 noundef %12)
  store i16 %13, ptr %10, align 2
  %14 = load i16, ptr %10, align 2
  %15 = zext i16 %14 to i32
  %16 = ashr i32 %15, 11
  %17 = and i32 %16, 31
  %18 = trunc i32 %17 to i16
  store i16 %18, ptr %9, align 2
  %19 = load i16, ptr %10, align 2
  %20 = zext i16 %19 to i32
  %21 = ashr i32 %20, 0
  %22 = and i32 %21, 31
  %23 = trunc i32 %22 to i16
  store i16 %23, ptr %5, align 2
  %24 = load i16, ptr %10, align 2
  %25 = zext i16 %24 to i32
  %26 = ashr i32 %25, 5
  %27 = and i32 %26, 63
  %28 = trunc i32 %27 to i16
  store i16 %28, ptr %6, align 2
  %29 = load i16, ptr %6, align 2
  %30 = sext i16 %29 to i32
  %31 = load i16, ptr %5, align 2
  %32 = sext i16 %31 to i32
  %33 = sub i32 %30, %32
  %34 = srem i32 %33, 26
  %35 = trunc i32 %34 to i16
  store i16 %35, ptr %7, align 2
  %36 = load i16, ptr %7, align 2
  %37 = sext i16 %36 to i32
  %38 = icmp slt i32 %37, 0
  br i1 %38, label %39, label %44

39:                                               ; preds = %2
  %40 = load i16, ptr %7, align 2
  %41 = sext i16 %40 to i32
  %42 = add i32 %41, 26
  %43 = trunc i32 %42 to i16
  store i16 %43, ptr %7, align 2
  br label %44

44:                                               ; preds = %39, %2
  %45 = load i16, ptr %7, align 2
  %46 = sext i16 %45 to i32
  %47 = mul i32 51, %46
  %48 = load i16, ptr %6, align 2
  %49 = sext i16 %48 to i32
  %50 = add i32 %47, %49
  %51 = load i16, ptr %9, align 2
  %52 = zext i16 %51 to i32
  %53 = mul i32 1326, %52
  %54 = add i32 %50, %53
  %55 = trunc i32 %54 to i16
  store i16 %55, ptr %8, align 2
  %56 = load i16, ptr %8, align 2
  call void @llvm.lifetime.end.p0(i64 2, ptr %10) #11
  call void @llvm.lifetime.end.p0(i64 2, ptr %9) #11
  call void @llvm.lifetime.end.p0(i64 2, ptr %8) #11
  call void @llvm.lifetime.end.p0(i64 2, ptr %7) #11
  call void @llvm.lifetime.end.p0(i64 2, ptr %6) #11
  call void @llvm.lifetime.end.p0(i64 2, ptr %5) #11
  ret i16 %56
}

; Function Attrs: null_pointer_is_valid sspstrong uwtable
define internal zeroext i16 @de_rr_starting_time(ptr noundef %0, ptr noundef %1, ptr noundef %2, i32 noundef %3, i32 noundef %4, ptr noundef %5, i32 noundef %6) #1 {
  %8 = alloca ptr, align 8
  %9 = alloca ptr, align 8
  %10 = alloca ptr, align 8
  %11 = alloca i32, align 4
  %12 = alloca i32, align 4
  %13 = alloca ptr, align 8
  %14 = alloca i32, align 4
  %15 = alloca ptr, align 8
  %16 = alloca i32, align 4
  %17 = alloca i16, align 2
  store ptr %0, ptr %8, align 8
  store ptr %1, ptr %9, align 8
  store ptr %2, ptr %10, align 8
  store i32 %3, ptr %11, align 4
  store i32 %4, ptr %12, align 4
  store ptr %5, ptr %13, align 8
  store i32 %6, ptr %14, align 4
  call void @llvm.lifetime.start.p0(i64 8, ptr %15) #11
  call void @llvm.lifetime.start.p0(i64 4, ptr %16) #11
  call void @llvm.lifetime.start.p0(i64 2, ptr %17) #11
  %18 = load i32, ptr %11, align 4
  store i32 %18, ptr %16, align 4
  %19 = load ptr, ptr %8, align 8
  %20 = load i32, ptr %16, align 4
  %21 = call zeroext i16 @parse_reduced_frame_number(ptr noundef %19, i32 noundef %20)
  store i16 %21, ptr %17, align 2
  %22 = load ptr, ptr %9, align 8
  %23 = load i32, ptr @hf_gsm_a_rr_T1prim, align 4
  %24 = load ptr, ptr %8, align 8
  %25 = load i32, ptr %16, align 4
  %26 = call ptr @proto_tree_add_item(ptr noundef %22, i32 noundef %23, ptr noundef %24, i32 noundef %25, i32 noundef 1, i32 noundef 0)
  %27 = load ptr, ptr %9, align 8
  %28 = load i32, ptr @hf_gsm_a_rr_T3, align 4
  %29 = load ptr, ptr %8, align 8
  %30 = load i32, ptr %16, align 4
  %31 = call ptr @proto_tree_add_item(ptr noundef %27, i32 noundef %28, ptr noundef %29, i32 noundef %30, i32 noundef 2, i32 noundef 0)
  %32 = load i32, ptr %16, align 4
  %33 = add i32 %32, 1
  store i32 %33, ptr %16, align 4
  %34 = load ptr, ptr %9, align 8
  %35 = load i32, ptr @hf_gsm_a_rr_T2, align 4
  %36 = load ptr, ptr %8, align 8
  %37 = load i32, ptr %16, align 4
  %38 = call ptr @proto_tree_add_item(ptr noundef %34, i32 noundef %35, ptr noundef %36, i32 noundef %37, i32 noundef 1, i32 noundef 0)
  %39 = load i32, ptr %16, align 4
  %40 = add i32 %39, 1
  store i32 %40, ptr %16, align 4
  %41 = load ptr, ptr %9, align 8
  %42 = load i32, ptr @hf_gsm_a_rr_rfn, align 4
  %43 = load ptr, ptr %8, align 8
  %44 = load i32, ptr %16, align 4
  %45 = sub i32 %44, 2
  %46 = load i16, ptr %17, align 2
  %47 = zext i16 %46 to i32
  %48 = call ptr @proto_tree_add_uint(ptr noundef %41, i32 noundef %42, ptr noundef %43, i32 noundef %45, i32 noundef 2, i32 noundef %47)
  store ptr %48, ptr %15, align 8
  %49 = load ptr, ptr %15, align 8
  call void @proto_item_set_generated(ptr noundef %49)
  %50 = load i32, ptr %16, align 4
  %51 = load i32, ptr %11, align 4
  %52 = sub i32 %50, %51
  %53 = trunc i32 %52 to i16
  call void @llvm.lifetime.end.p0(i64 2, ptr %17) #11
  call void @llvm.lifetime.end.p0(i64 4, ptr %16) #11
  call void @llvm.lifetime.end.p0(i64 8, ptr %15) #11
  ret i16 %53
}