; Function Attrs: null_pointer_is_valid sspstrong uwtable
define internal noundef zeroext i16 @de_rr_starting_time(ptr noundef %0, ptr noundef %1, ptr readnone captures(none) %2, i32 noundef %3, i32 %4, ptr readnone captures(none) %5, i32 %6) #3 {
  %8 = tail call zeroext i16 @tvb_get_ntohs(ptr noundef %0, i32 noundef %3)
  %9 = lshr i16 %8, 5
  %10 = and i16 %9, 63
  %11 = trunc nuw nsw i16 %10 to i8
  %12 = trunc i16 %8 to i8
  %13 = and i8 %12, 31
  %.lhs.trunc.i = sub nsw i8 %11, %13
  %14 = srem i8 %.lhs.trunc.i, 26
  %.sext.i = sext i8 %14 to i16
  %15 = icmp slt i8 %14, 0
  %16 = add nsw i16 %.sext.i, 26
  %spec.select.i = select i1 %15, i16 %16, i16 %.sext.i
  %17 = lshr i16 %8, 11
  %narrow.i = mul nuw i16 %17, 1326
  %18 = mul nsw i16 %spec.select.i, 51
  %19 = add nuw i16 %narrow.i, %10
  %20 = add i16 %19, %18
  %21 = load i32, ptr @hf_gsm_a_rr_T1prim, align 4
  %22 = tail call ptr @proto_tree_add_item(ptr noundef %1, i32 noundef %21, ptr noundef %0, i32 noundef %3, i32 noundef 1, i32 noundef 0)
  %23 = load i32, ptr @hf_gsm_a_rr_T3, align 4
  %24 = tail call ptr @proto_tree_add_item(ptr noundef %1, i32 noundef %23, ptr noundef %0, i32 noundef %3, i32 noundef 2, i32 noundef 0)
  %25 = add i32 %3, 1
  %26 = load i32, ptr @hf_gsm_a_rr_T2, align 4
  %27 = tail call ptr @proto_tree_add_item(ptr noundef %1, i32 noundef %26, ptr noundef %0, i32 noundef %25, i32 noundef 1, i32 noundef 0)
  %28 = load i32, ptr @hf_gsm_a_rr_rfn, align 4
  %29 = zext i16 %20 to i32
  %30 = tail call ptr @proto_tree_add_uint(ptr noundef %1, i32 noundef %28, ptr noundef %0, i32 noundef %3, i32 noundef 2, i32 noundef %29)
  %.not.i = icmp eq ptr %30, null
  br i1 %.not.i, label %proto_item_set_generated.exit, label %31

31:                                               ; preds = %7
  %32 = getelementptr inbounds nuw i8, ptr %30, i64 40
  %33 = load ptr, ptr %32, align 8
  %.not5.i = icmp eq ptr %33, null
  br i1 %.not5.i, label %proto_item_set_generated.exit, label %34

34:                                               ; preds = %31
  %35 = getelementptr inbounds nuw i8, ptr %33, i64 28
  %36 = load i32, ptr %35, align 4
  %37 = or i32 %36, 2
  store i32 %37, ptr %35, align 4
  br label %proto_item_set_generated.exit

proto_item_set_generated.exit:                    ; preds = %7, %31, %34
  ret i16 2
}